; Function Attrs: mustprogress nofree norecurse nosync nounwind willreturn memory(read, inaccessiblemem: none) uwtable
define dso_local { ptr, ptr } @_ZNK8cmTarget32GetInterfaceCxxModuleSetsEntriesB5cxx11Ev(ptr noundef nonnull readonly align 8 captures(none) dereferenceable(8) %0) local_unnamed_addr #6 align 2 {
  %2 = load ptr, ptr %0, align 8, !tbaa !22
  %3 = getelementptr inbounds nuw i8, ptr %2, i64 1936
  %4 = load ptr, ptr %3, align 8, !tbaa !155
  %5 = getelementptr inbounds nuw i8, ptr %2, i64 1944
  %6 = load ptr, ptr %5, align 8, !tbaa !155
  %.fca.0.insert.i = insertvalue { ptr, ptr } poison, ptr %4, 0
  %.fca.1.insert.i = insertvalue { ptr, ptr } %.fca.0.insert.i, ptr %6, 1
  ret { ptr, ptr } %.fca.1.insert.i
}